Certificate:
    Data:
        Version: 3 (0x2)
        Serial Number: 11374809427514836059 (0x9ddb70e872c9445b)
    Signature Algorithm: sha256WithRSAEncryption
        Issuer: C=CN, ST=Beijing, O=Pivotal, OU=Data, CN=ldapserver/emailAddress=yyao@pivotal.io
        Validity
            Not Before: Aug  1 13:38:36 2016 GMT
            Not After : Aug  1 13:38:36 2019 GMT
        Subject: C=CN, ST=Beijing, O=Pivotal, OU=Data, CN=ldapserver/emailAddress=yyao@pivotal.io
        Subject Public Key Info:
            Public Key Algorithm: rsaEncryption
                Public-Key: (2048 bit)
                Modulus:
                    00:c4:78:15:35:f8:f9:32:47:db:92:d3:c2:c8:7c:
                    69:47:4c:92:d5:bc:46:94:3f:7b:83:e9:8d:bf:dd:
                    d1:6d:63:af:55:7f:17:ef:32:54:09:d5:30:db:5e:
                    6d:29:23:ad:27:78:71:53:57:63:88:af:da:92:7c:
                    a9:9b:77:ca:c8:27:dc:63:9e:81:4d:70:7b:ff:01:
                    5f:eb:49:28:91:6a:60:79:8f:b8:c3:ba:a4:ee:ae:
                    68:02:aa:1d:a3:26:9f:f1:0f:f7:e7:f9:7f:f4:e3:
                    66:7f:68:75:a5:f8:1c:c9:c8:30:1c:3c:6f:fa:11:
                    83:aa:60:ba:35:95:fe:46:25:1b:47:86:fc:c9:aa:
                    02:11:85:26:2c:36:03:5d:3f:91:05:ba:c1:70:49:
                    e9:7b:4d:99:41:a6:80:5f:36:b7:0b:4c:0f:6a:90:
                    af:bb:83:e0:aa:96:31:c2:00:9e:6e:67:5c:32:d6:
                    6c:23:9b:b4:de:f1:1f:83:40:66:64:63:57:63:37:
                    4a:97:4d:bc:1c:e1:5f:f8:c2:37:50:64:a5:e2:27:
                    ba:34:12:dc:c0:8b:75:3f:f9:76:f3:21:be:78:43:
                    6c:60:e1:a0:57:5c:78:2e:3f:bd:ce:14:9c:bd:29:
                    8e:a6:b7:9f:65:52:85:81:07:05:3c:a6:56:a2:ea:
                    b4:5d
                Exponent: 65537 (0x10001)
        X509v3 extensions:
            X509v3 Subject Key Identifier: 
                CB:32:C9:B0:BA:70:4D:86:42:E0:AD:DD:37:16:CA:13:F6:40:ED:F0
            X509v3 Authority Key Identifier: 
                keyid:CB:32:C9:B0:BA:70:4D:86:42:E0:AD:DD:37:16:CA:13:F6:40:ED:F0

            X509v3 Basic Constraints: 
                CA:TRUE
    Signature Algorithm: sha256WithRSAEncryption
         06:11:59:9f:ac:2a:6b:0c:1d:b9:70:18:0f:fb:e2:a0:34:fa:
         f1:1a:a5:68:fb:fa:d3:7c:6f:4c:8b:5e:51:5c:ba:14:37:21:
         2f:7c:4e:c3:ae:f6:47:c3:f6:12:7b:4d:25:1a:ab:5c:c2:de:
         2f:46:35:45:86:2b:0b:60:96:8f:70:f6:ba:79:41:bb:18:1a:
         57:a1:73:7e:2e:4a:f1:2a:5c:2e:ac:14:f0:e6:99:cd:cd:94:
         14:23:0c:c9:e8:fa:f9:6c:87:41:13:3e:ca:c0:2d:67:59:ef:
         1e:15:ff:b4:bb:c4:a1:f9:a8:61:a8:84:48:f8:6a:cf:46:55:
         13:a3:12:bd:76:17:03:9c:1e:cf:0d:d8:34:44:bb:4c:95:bf:
         f5:48:c2:6a:1e:9b:9d:cb:a0:e2:b4:c3:60:a4:26:00:48:62:
         77:36:a2:5c:b7:3a:78:f5:68:bb:a4:48:bd:b4:f4:8a:a4:cc:
         2b:3b:0a:39:99:e9:78:cb:75:8a:be:53:9d:65:33:f3:c2:ae:
         b7:51:65:cf:e2:de:da:5e:b5:c4:63:78:6f:0a:b3:72:ea:71:
         e8:2f:c7:f4:17:a6:b7:da:37:b1:2b:90:e5:31:b6:a6:16:ea:
         69:a0:4d:3e:01:7d:dd:ad:2c:26:1c:b3:1d:51:88:4b:de:9d:
         f2:55:67:fd
-----BEGIN CERTIFICATE-----
MIIDvTCCAqWgAwIBAgIJAJ3bcOhyyURbMA0GCSqGSIb3DQEBCwUAMHUxCzAJBgNV
BAYTAkNOMRAwDgYDVQQIDAdCZWlqaW5nMRAwDgYDVQQKDAdQaXZvdGFsMQ0wCwYD
VQQLDAREYXRhMRMwEQYDVQQDDApsZGFwc2VydmVyMR4wHAYJKoZIhvcNAQkBFg95
eWFvQHBpdm90YWwuaW8wHhcNMTYwODAxMTMzODM2WhcNMTkwODAxMTMzODM2WjB1
MQswCQYDVQQGEwJDTjEQMA4GA1UECAwHQmVpamluZzEQMA4GA1UECgwHUGl2b3Rh
bDENMAsGA1UECwwERGF0YTETMBEGA1UEAwwKbGRhcHNlcnZlcjEeMBwGCSqGSIb3
DQEJARYPeXlhb0BwaXZvdGFsLmlvMIIBIjANBgkqhkiG9w0BAQEFAAOCAQ8AMIIB
CgKCAQEAxHgVNfj5MkfbktPCyHxpR0yS1bxGlD97g+mNv93RbWOvVX8X7zJUCdUw
215tKSOtJ3hxU1djiK/aknypm3fKyCfcY56BTXB7/wFf60kokWpgeY+4w7qk7q5o
Aqodoyaf8Q/35/l/9ONmf2h1pfgcycgwHDxv+hGDqmC6NZX+RiUbR4b8yaoCEYUm
LDYDXT+RBbrBcEnpe02ZQaaAXza3C0wPapCvu4PgqpYxwgCebmdcMtZsI5u03vEf
g0BmZGNXYzdKl028HOFf+MI3UGSl4ie6NBLcwIt1P/l28yG+eENsYOGgV1x4Lj+9
zhScvSmOprefZVKFgQcFPKZWouq0XQIDAQABo1AwTjAdBgNVHQ4EFgQUyzLJsLpw
TYZC4K3dNxbKE/ZA7fAwHwYDVR0jBBgwFoAUyzLJsLpwTYZC4K3dNxbKE/ZA7fAw
DAYDVR0TBAUwAwEB/zANBgkqhkiG9w0BAQsFAAOCAQEABhFZn6wqawwduXAYD/vi
oDT68RqlaPv603xvTIteUVy6FDchL3xOw672R8P2EntNJRqrXMLeL0Y1RYYrC2CW
j3D2unlBuxgaV6Fzfi5K8SpcLqwU8OaZzc2UFCMMyej6+WyHQRM+ysAtZ1nvHhX/
tLvEofmoYaiESPhqz0ZVE6MSvXYXA5wezw3YNES7TJW/9UjCah6bncug4rTDYKQm
AEhidzaiXLc6ePVou6RIvbT0iqTMKzsKOZnpeMt1ir5TnWUz88Kut1Flz+Le2l61
xGN4bwqzcupx6C/H9Bemt9o3sSuQ5TG2phbqaaBNPgF93a0sJhyzHVGIS96d8lVn
/Q==
-----END CERTIFICATE-----
