Certificate:
    Data:
        Version: 3 (0x2)
        Serial Number: 11374809427514836060 (0x9ddb70e872c9445c)
    Signature Algorithm: sha256WithRSAEncryption
        Issuer: C=CN, ST=Beijing, O=Pivotal, OU=Data, CN=ldapserver/emailAddress=yyao@pivotal.io
        Validity
            Not Before: Aug  1 13:48:35 2016 GMT
            Not After : Aug  1 13:48:35 2017 GMT
        Subject: C=CN, ST=Beijing, L=Beijing, O=Pivotal, OU=Data, CN=ldapserver/emailAddress=yyao@pivotal.io
        Subject Public Key Info:
            Public Key Algorithm: rsaEncryption
                Public-Key: (2048 bit)
                Modulus:
                    00:d6:25:d8:aa:dd:42:8f:80:3b:e9:aa:ff:1f:73:
                    72:45:69:7f:8d:8b:27:4a:e9:d2:3a:84:06:13:a5:
                    d5:f0:32:2f:35:c1:86:b1:8c:e2:8c:27:90:55:88:
                    c3:b3:0a:c2:a2:c2:c4:92:f8:f2:60:e2:fe:b1:33:
                    6d:b6:69:cf:75:f7:4e:b5:db:05:f8:a8:27:e5:a8:
                    f1:eb:7e:19:7a:36:3e:ad:e3:dd:6b:0f:53:1c:98:
                    9b:26:29:98:0c:bc:10:28:30:e7:53:be:1f:59:99:
                    21:05:9d:d6:2e:28:66:75:fd:a8:55:d0:e5:5d:ff:
                    6f:e7:99:3a:dc:cb:a5:4b:47:01:a5:1a:2c:2b:49:
                    e2:2a:e5:fc:19:5c:e3:02:32:85:3b:c2:75:b5:8b:
                    da:66:6f:47:48:28:42:cf:88:c7:2a:25:a7:23:51:
                    7f:c0:b5:95:b2:49:d4:fb:0b:de:7a:10:04:c2:6d:
                    77:23:35:b2:a8:7b:9b:9e:27:c5:bb:58:3e:c0:05:
                    17:ba:a4:e7:45:c9:0b:c9:17:5f:db:28:29:97:bb:
                    fd:88:f7:64:ce:2c:45:de:f0:f8:ce:51:c5:8d:7b:
                    64:63:21:f1:29:09:22:3d:ed:b2:79:1d:db:41:d7:
                    8a:07:13:fa:8d:db:b5:0c:2f:31:0a:f8:da:e0:96:
                    ea:cd
                Exponent: 65537 (0x10001)
        X509v3 extensions:
            X509v3 Basic Constraints: 
                CA:FALSE
            Netscape Comment: 
                OpenSSL Generated Certificate
            X509v3 Subject Key Identifier: 
                47:CF:6F:69:7F:12:4C:D9:C3:3E:57:1B:66:1F:82:F4:BA:97:A0:F5
            X509v3 Authority Key Identifier: 
                keyid:CB:32:C9:B0:BA:70:4D:86:42:E0:AD:DD:37:16:CA:13:F6:40:ED:F0

    Signature Algorithm: sha256WithRSAEncryption
         9d:ca:a3:b2:a5:8b:07:1a:64:46:2b:ca:50:05:a0:b8:76:1f:
         49:39:34:2f:2e:ec:d6:fa:20:48:8b:0f:a2:41:df:5c:e7:23:
         98:3f:07:7e:3c:50:7b:51:c3:66:30:e7:79:20:f5:0f:25:16:
         17:86:01:f8:0c:6e:cf:c2:e3:40:c4:ab:0c:34:7b:2d:1a:d8:
         f1:46:92:10:eb:ea:4b:41:81:51:1d:bd:d1:03:8e:7d:27:89:
         d5:29:8c:9a:fc:fb:5e:0a:93:17:69:b2:27:77:83:e0:32:f7:
         60:b0:9c:f0:a9:4e:a7:64:9e:67:95:9a:28:bb:57:f8:aa:c3:
         5b:25:80:63:9c:d3:ba:62:7c:47:70:b3:46:e8:df:49:1f:cc:
         a5:76:b6:32:ee:89:bc:66:3e:11:a9:aa:25:6c:b0:97:10:0b:
         88:ac:2b:2c:a7:07:39:57:29:7d:57:c7:f1:85:54:9f:56:f3:
         a3:23:7b:36:57:b8:06:14:5c:04:d6:1e:81:27:20:a6:01:ec:
         8b:fa:45:29:6d:88:af:ff:fc:b3:8f:4a:75:b4:31:a2:eb:04:
         87:16:ce:e5:04:c4:1b:60:a9:78:8b:a8:11:34:e7:7a:e4:39:
         28:9f:d8:77:14:c1:ee:5f:81:04:96:cc:98:52:aa:de:f6:81:
         93:d9:44:2a
-----BEGIN CERTIFICATE-----
MIID+zCCAuOgAwIBAgIJAJ3bcOhyyURcMA0GCSqGSIb3DQEBCwUAMHUxCzAJBgNV
BAYTAkNOMRAwDgYDVQQIDAdCZWlqaW5nMRAwDgYDVQQKDAdQaXZvdGFsMQ0wCwYD
VQQLDAREYXRhMRMwEQYDVQQDDApsZGFwc2VydmVyMR4wHAYJKoZIhvcNAQkBFg95
eWFvQHBpdm90YWwuaW8wHhcNMTYwODAxMTM0ODM1WhcNMTcwODAxMTM0ODM1WjCB
hzELMAkGA1UEBhMCQ04xEDAOBgNVBAgMB0JlaWppbmcxEDAOBgNVBAcMB0JlaWpp
bmcxEDAOBgNVBAoMB1Bpdm90YWwxDTALBgNVBAsMBERhdGExEzARBgNVBAMMCmxk
YXBzZXJ2ZXIxHjAcBgkqhkiG9w0BCQEWD3l5YW9AcGl2b3RhbC5pbzCCASIwDQYJ
KoZIhvcNAQEBBQADggEPADCCAQoCggEBANYl2KrdQo+AO+mq/x9zckVpf42LJ0rp
0jqEBhOl1fAyLzXBhrGM4ownkFWIw7MKwqLCxJL48mDi/rEzbbZpz3X3TrXbBfio
J+Wo8et+GXo2Pq3j3WsPUxyYmyYpmAy8ECgw51O+H1mZIQWd1i4oZnX9qFXQ5V3/
b+eZOtzLpUtHAaUaLCtJ4irl/Blc4wIyhTvCdbWL2mZvR0goQs+IxyolpyNRf8C1
lbJJ1PsL3noQBMJtdyM1sqh7m54nxbtYPsAFF7qk50XJC8kXX9soKZe7/Yj3ZM4s
Rd7w+M5RxY17ZGMh8SkJIj3tsnkd20HXigcT+o3btQwvMQr42uCW6s0CAwEAAaN7
MHkwCQYDVR0TBAIwADAsBglghkgBhvhCAQ0EHxYdT3BlblNTTCBHZW5lcmF0ZWQg
Q2VydGlmaWNhdGUwHQYDVR0OBBYEFEfPb2l/EkzZwz5XG2YfgvS6l6D1MB8GA1Ud
IwQYMBaAFMsyybC6cE2GQuCt3TcWyhP2QO3wMA0GCSqGSIb3DQEBCwUAA4IBAQCd
yqOypYsHGmRGK8pQBaC4dh9JOTQvLuzW+iBIiw+iQd9c5yOYPwd+PFB7UcNmMOd5
IPUPJRYXhgH4DG7PwuNAxKsMNHstGtjxRpIQ6+pLQYFRHb3RA459J4nVKYya/Pte
CpMXabInd4PgMvdgsJzwqU6nZJ5nlZoou1f4qsNbJYBjnNO6YnxHcLNG6N9JH8yl
drYy7om8Zj4RqaolbLCXEAuIrCsspwc5Vyl9V8fxhVSfVvOjI3s2V7gGFFwE1h6B
JyCmAeyL+kUpbYiv//yzj0p1tDGi6wSHFs7lBMQbYKl4i6gRNOd65Dkon9h3FMHu
X4EElsyYUqre9oGT2UQq
-----END CERTIFICATE-----
